(dp1
VCYS
p2
(dp3
VC
I-1
sVCB
p4
I0
sVCA
p5
I0
sVO
I-1
sVN
I-1
sVH
I-1
sVSG
p6
I-1
sVHA
p7
I0
sVHB1
p8
I0
sVHG
p9
I0
sVHB2
p10
I0
ssVASP
p11
(dp12
VC
I-1
sVH
I-1
sVCA
p13
I0
sVCG
p14
I-1
sVO
I-1
sVN
I-1
sVOD1
p15
I-1
sVHA
p16
I0
sVHB1
p17
I0
sVOD2
p18
I-1
sVCB
p19
I0
sVHB2
p20
I0
ssVSER
p21
(dp22
VC
I-1
sVOG
p23
I-1
sVH
I-1
sVCA
p24
I0
sVO
I-1
sVN
I-1
sVCB
p25
I0
sVHA
p26
I0
sVHB1
p27
I0
sVHG
p28
I-1
sVHB2
p29
I0
ssVGLN
p30
(dp31
VC
I-1
sVH
I-1
sVCA
p32
I0
sVCG
p33
I0
sVO
I-1
sVN
I-1
sVCD
p34
I-1
sVNE2
p35
I-1
sVHG1
p36
I0
sVCB
p37
I0
sVHE22
p38
I-1
sVHE21
p39
I-1
sVHA
p40
I0
sVHB1
p41
I0
sVOE1
p42
I-1
sVHG2
p43
I0
sVHB2
p44
I0
ssVLYS
p45
(dp46
VHA
p47
I0
sVHE1
p48
I0
sVHE2
p49
I0
sVHG2
p50
I0
sVHG1
p51
I0
sVNZ
p52
I-1
sVHZ1
p53
I-1
sVHZ3
p54
I-1
sVHZ2
p55
I-1
sVCB
p56
I0
sVC
I-1
sVH
I-1
sVCA
p57
I0
sVCG
p58
I0
sVO
I-1
sVN
I-1
sVCE
p59
I0
sVCD
p60
I0
sVHD2
p61
I0
sVHD1
p62
I0
sS'OC1'
p63
F-1
sS'OC2'
p64
F-1
sVHB1
p65
I0
sVHB2
p66
I0
ssVILE
p67
(dp68
VC
I-1
sVCG2
p69
I0
sVHD3
p70
I0
sVHD2
p71
I0
sVHD1
p72
I0
sVHG11
p73
I0
sVH
I-1
sVCA
p74
I0
sVCD
p75
I0
sVHG21
p76
I0
sVO
I-1
sVN
I-1
sVCG1
p77
I0
sVHG12
p78
I0
sVCB
p79
I0
sVHB
p80
I0
sVHG23
p81
I0
sVHA
p82
I0
sVHG22
p83
I0
ssVPRO
p84
(dp85
VC
I-1
sVHD2
p86
I0
sVHD1
p87
I0
sVCB
p88
I0
sVCA
p89
I0
sVCG
p90
I0
sVO
I-1
sVN
I0
sVCD
p91
I0
sVHG1
p92
I0
sVHA
p93
I0
sVHB1
p94
I0
sVHG2
p95
I0
sVHB2
p96
I0
ssVTHR
p97
(dp98
VC
I-1
sVHA
p99
I0
sS'OC2'
p100
F-1
sVH
I-1
sVCA
p101
I0
sVOG1
p102
I-1
sVHG21
p103
I0
sVO
I-1
sVN
I-1
sVHB
p104
I0
sVCG2
p105
I0
sVHG1
p106
I-1
sVCB
p107
I0
sS'OC1'
p108
F-1
sVHG23
p109
I0
sVHG22
p110
I0
ssVPHE
p111
(dp112
VHZ
p113
I0
sVC
I-1
sVCD1
p114
I0
sVHE2
p115
I0
sVHD1
p116
I0
sVH
I-1
sVCA
p117
I0
sVCG
p118
I0
sVO
I-1
sVN
I-1
sVCZ
p119
I0
sVHD2
p120
I0
sVCE2
p121
I0
sVCE1
p122
I0
sVCB
p123
I0
sVHE1
p124
I0
sVHA
p125
I0
sVHB1
p126
I0
sVCD2
p127
I0
sVHB2
p128
I0
ssVALA
p129
(dp130
VC
I-1
sS'H2'
p131
F-1
sVCB
p132
I0
sVCA
p133
I0
sS'H1'
p134
F-1
sVO
I-1
sVN
I-1
sVH
I-1
sS'H3'
p135
F-1
sVHA
p136
I0
sVHB1
p137
I0
sVHB3
p138
I0
sVHB2
p139
I0
ssVGLY
p140
(dp141
VC
I-1
sVH
I-1
sVCA
p142
I0
sVO
I-1
sVN
I-1
sS'OC1'
p143
F-1
sVHA1
p144
I0
sVHA2
p145
I0
sS'OC2'
p146
F-1
ssS'SOL'
p147
(dp148
sVHIS
p149
(dp150
VC
I-1
sVHD2
p151
I0
sVHE2
p152
I-1
sVH
I-1
sVCA
p153
I0
sVCG
p154
I-1
sVO
I-1
sVN
I-1
sS'HD1'
p155
F-1
sVNE2
p156
I-1
sVCE1
p157
I0
sVCB
p158
I-1
sVND1
p159
I-1
sVHE1
p160
I0
sVHA
p161
I0
sVHB1
p162
I0
sVCD2
p163
I-1
sVHB2
p164
I0
ssVASN
p165
(dp166
VC
I-1
sVND2
p167
I-1
sVHD22
p168
I-1
sVHD21
p169
I-1
sVH
I-1
sVCA
p170
I0
sVCG
p171
I-1
sVO
I-1
sVN
I-1
sVOD1
p172
I-1
sVHA
p173
I0
sVHB1
p174
I0
sVCB
p175
I0
sVHB2
p176
I0
ssVLEU
p177
(dp178
VC
I-1
sVHA
p179
I0
sVHD22
p180
I0
sVHD23
p181
I0
sVHD21
p182
I0
sVH
I-1
sVCA
p183
I0
sVCG
p184
I0
sVO
I-1
sVN
I-1
sVHD13
p185
I0
sVCD1
p186
I0
sVCD2
p187
I0
sVCB
p188
I0
sS'OC1'
p189
F-1
sVHD12
p190
I0
sVHD11
p191
I0
sS'OC2'
p192
F-1
sVHB1
p193
I0
sVHG
p194
I0
sVHB2
p195
I0
ssVARG
p196
(dp197
VHA
p198
I0
sVHE
p199
I-1
sVHG2
p200
I0
sVNE
p201
I-1
sVHG1
p202
I0
sVHH22
p203
I-1
sVHH21
p204
I-1
sVCB
p205
I0
sVC
I-1
sVH
I-1
sVCA
p206
I0
sVCG
p207
I0
sVO
I-1
sVN
I-1
sVCZ
p208
I-1
sVNH1
p209
I-1
sVNH2
p210
I-1
sVCD
p211
I0
sVHD2
p212
I0
sVHD1
p213
I0
sVHH12
p214
I-1
sVHH11
p215
I-1
sS'OC1'
p216
F-1
sS'OC2'
p217
F-1
sVHB1
p218
I0
sVHB2
p219
I0
ssVTRP
p220
(dp221
VHH2
p222
I0
sVCZ2
p223
I0
sVCZ3
p224
I0
sVCD1
p225
I0
sVCD2
p226
I0
sVHA
p227
I0
sVHE1
p228
I-1
sVHE3
p229
I0
sVCH2
p230
I0
sVHZ3
p231
I0
sVHZ2
p232
I0
sVC
I-1
sVCB
p233
I0
sVCA
p234
I0
sVCG
p235
I0
sVO
I-1
sVN
I-1
sVCE3
p236
I0
sVCE2
p237
I0
sVHD1
p238
I0
sVH
I-1
sVHB2
p239
I0
sVHB1
p240
I0
sVNE1
p241
I-1
ssVVAL
p242
(dp243
VC
I-1
sS'OC2'
p244
F-1
sVHA
p245
I0
sVHG11
p246
I0
sVH
I-1
sVCA
p247
I0
sVHG21
p248
I0
sVO
I-1
sVN
I-1
sVCG1
p249
I0
sS'OC1'
p250
F-1
sVHG12
p251
I0
sVHG13
p252
I0
sVCG2
p253
I0
sVCB
p254
I0
sVHB
p255
I0
sVHG23
p256
I0
sVHG22
p257
I0
ssVGLU
p258
(dp259
VC
I-1
sS'H2'
p260
F-1
sVCB
p261
I0
sVCA
p262
I0
sS'H1'
p263
F-1
sVCG
p264
I0
sVO
I-1
sVN
I-1
sVCD
p265
I-1
sVHG1
p266
I0
sVH
I-1
sS'H3'
p267
F-1
sVOE2
p268
I-1
sVHA
p269
I0
sVHB1
p270
I0
sVOE1
p271
I-1
sVHG2
p272
I0
sVHB2
p273
I0
ssVTYR
p274
(dp275
VC
I-1
sVHE2
p276
I0
sVHD1
p277
I0
sVOH
p278
I-1
sVH
I-1
sVCA
p279
I0
sVCG
p280
I0
sVO
I-1
sVN
I-1
sVCZ
p281
I0
sVHH
p282
I-1
sVHD2
p283
I0
sVCD1
p284
I0
sVCE1
p285
I0
sVCB
p286
I0
sVHE1
p287
I0
sVCE2
p288
I0
sVHA
p289
I0
sVHB1
p290
I0
sVCD2
p291
I0
sVHB2
p292
I0
ssVMET
p293
(dp294
VC
I-1
sVHE1
p295
I0
sVHE2
p296
I0
sVHE3
p297
I0
sS'H2'
p298
F-1
sVH
I-1
sVCA
p299
I0
sS'H1'
p300
F-1
sVHG2
p301
I0
sVO
I-1
sVHG1
p302
I0
sVN
I-1
sVSD
p303
I-1
sVCE
p304
I0
sS'H3'
p305
F-1
sVCG
p306
I0
sVHA
p307
I0
sVHB1
p308
I0
sVCB
p309
I0
sVHB2
p310
I0
ss.