(dp1
VCYS
p2
(dp3
VC
I-1
sVOC2
p4
F-1
sVCB
p5
I1
sVCA
p6
I1
sVO
I-1
sVN
I-1
sVH
I-1
sVOC1
p7
F-1
sVSG
p8
I-1
sVHA
p9
I1
sVHB1
p10
I1
sVHG
p11
I1
sVHB2
p12
I1
ssVASP
p13
(dp14
VC
I-1
sVH
I-1
sVCA
p15
I1
sVCG
p16
I-1
sVO
I-1
sVN
I-1
sVOD1
p17
I-1
sVHA
p18
I1
sVHB1
p19
I1
sVOD2
p20
I-1
sVCB
p21
I1
sVHB2
p22
I1
ssVSER
p23
(dp24
VC
I-1
sVOC2
p25
F-1
sVOG
p26
I-1
sVH
I-1
sVCA
p27
I1
sVH1
p28
F-1
sVO
I-1
sVN
I-1
sVH2
p29
F-1
sVCB
p30
I1
sVOC1
p31
F-1
sVH3
p32
F-1
sVHA
p33
I1
sVHB1
p34
I1
sVHG
p35
I-1
sVHB2
p36
I1
ssVGLN
p37
(dp38
VC
I-1
sVOC2
p39
F-1
sVH
I-1
sVCA
p40
I1
sVCG
p41
I1
sVO
I-1
sVN
I-1
sVCD
p42
I-1
sVNE2
p43
I-1
sVHG1
p44
I1
sVCB
p45
I1
sVOC1
p46
F-1
sVHE22
p47
I-1
sVHE21
p48
I-1
sVHA
p49
I1
sVHB1
p50
I1
sVOE1
p51
I-1
sVHG2
p52
I1
sVHB2
p53
I1
ssVLYS
p54
(dp55
VHA
p56
I1
sVHE1
p57
I1
sVHE2
p58
I1
sVHG2
p59
I1
sVHG1
p60
I1
sVNZ
p61
I-1
sVHZ1
p62
I-1
sVHZ3
p63
I-1
sVHZ2
p64
I-1
sVCB
p65
I1
sVC
I-1
sVH
I-1
sVCA
p66
I1
sVCG
p67
I1
sVO
I-1
sVN
I-1
sVCE
p68
I1
sVCD
p69
I1
sVHD2
p70
I1
sVHD1
p71
I1
sVH2
p72
F-1
sVH3
p73
F-1
sVH1
p74
F-1
sS'OC1'
p75
F-1
sS'OC2'
p76
F-1
sVHB1
p77
I1
sVHB2
p78
I1
ssVILE
p79
(dp80
VC
I-1
sVOC2
p81
F-1
sVHD3
p82
I1
sVHD2
p83
I1
sVHD1
p84
I1
sVHG11
p85
I1
sVHG21
p86
I1
sVH
I-1
sVCA
p87
I1
sVHG12
p88
I1
sVO
I-1
sVN
I-1
sVCG1
p89
I1
sVOC1
p90
F-1
sVCD
p91
I1
sVCG2
p92
I1
sVCB
p93
I1
sVHB
p94
I1
sVHG23
p95
I1
sVHA
p96
I1
sVHG22
p97
I1
ssVPRO
p98
(dp99
VC
I-1
sVOC2
p100
F-1
sVHD2
p101
I1
sVHD1
p102
I1
sVH2
p103
F-1
sVCB
p104
I1
sVCA
p105
I1
sVH1
p106
F-1
sVCG
p107
I1
sVO
I-1
sVN
I1
sVCD
p108
I1
sVHG1
p109
I1
sVOC1
p110
F-1
sVHA
p111
I1
sVHB1
p112
I1
sVHG2
p113
I1
sVHB2
p114
I1
ssVTHR
p115
(dp116
VC
I-1
sS'OC2'
p117
F-1
sVHG22
p118
I1
sVH
I-1
sVCA
p119
I1
sVOG1
p120
I-1
sVHG21
p121
I1
sVO
I-1
sVN
I-1
sVHB
p122
I1
sVCG2
p123
I1
sVHG1
p124
I-1
sVCB
p125
I1
sS'OC1'
p126
F-1
sVHG23
p127
I1
sVHA
p128
I1
ssVPHE
p129
(dp130
VHZ
p131
I1
sVC
I-1
sVCD1
p132
I1
sVHE2
p133
I1
sVHD1
p134
I1
sVH
I-1
sVCA
p135
I1
sVCG
p136
I1
sVO
I-1
sVN
I-1
sVCZ
p137
I1
sVHD2
p138
I1
sVCE2
p139
I1
sVCE1
p140
I1
sVCB
p141
I1
sVHE1
p142
I1
sVHA
p143
I1
sVHB1
p144
I1
sVCD2
p145
I1
sVHB2
p146
I1
ssVALA
p147
(dp148
VC
I-1
sVHA
p149
I1
sS'H2'
p150
F-1
sVCB
p151
I1
sVCA
p152
I1
sS'H1'
p153
F-1
sVO
I-1
sVN
I-1
sVH
I-1
sS'H3'
p154
F-1
sVOC1
p155
F-1
sVOC2
p156
F-1
sVHB1
p157
I1
sVHB3
p158
I1
sVHB2
p159
I1
ssVGLY
p160
(dp161
VC
I-1
sVH2
p162
F-1
sVH
I-1
sVCA
p163
I1
sVH1
p164
F-1
sVO
I-1
sVN
I-1
sVH3
p165
F-1
sS'OC1'
p166
F-1
sVHA1
p167
I1
sVHA2
p168
I1
sS'OC2'
p169
F-1
ssS'SOL'
p170
(dp171
sVHIS
p172
(dp173
VC
I-1
sVHD2
p174
I1
sVHE2
p175
I-1
sVH
I-1
sVCA
p176
I1
sVCG
p177
I-1
sVO
I-1
sVN
I-1
sS'HD1'
p178
F-1
sVNE2
p179
I-1
sVCE1
p180
I1
sVCB
p181
I-1
sVND1
p182
I-1
sVHE1
p183
I1
sVHA
p184
I1
sVHB1
p185
I1
sVCD2
p186
I-1
sVHB2
p187
I1
ssVASN
p188
(dp189
VC
I-1
sVHA
p190
I1
sVHD22
p191
I-1
sVHD21
p192
I-1
sVH
I-1
sVCA
p193
I1
sVCG
p194
I-1
sVO
I-1
sVN
I-1
sVOD1
p195
I-1
sVOC1
p196
F-1
sVND2
p197
I-1
sVOC2
p198
F-1
sVHB1
p199
I1
sVCB
p200
I1
sVHB2
p201
I1
ssVLEU
p202
(dp203
VHD22
p204
I1
sVHD23
p205
I1
sVHD21
p206
I1
sVCD1
p207
I1
sVCD2
p208
I1
sVHA
p209
I1
sVHG
p210
I1
sVCB
p211
I1
sVC
I-1
sVH
I-1
sVCA
p212
I1
sVCG
p213
I1
sVO
I-1
sVN
I-1
sVHD13
p214
I1
sVHD12
p215
I1
sVHD11
p216
I1
sVH2
p217
F-1
sVH3
p218
F-1
sVH1
p219
F-1
sS'OC1'
p220
F-1
sS'OC2'
p221
F-1
sVHB1
p222
I1
sVHB2
p223
I1
ssVARG
p224
(dp225
VHA
p226
I1
sVHE
p227
I-1
sVHG2
p228
I1
sVNE
p229
I-1
sVHG1
p230
I1
sVHH22
p231
I-1
sVHH21
p232
I-1
sVCB
p233
I1
sVC
I-1
sVH
I-1
sVCA
p234
I1
sVCG
p235
I1
sVO
I-1
sVN
I-1
sVCZ
p236
I-1
sVNH1
p237
I-1
sVNH2
p238
I-1
sVCD
p239
I1
sVHD2
p240
I1
sVHD1
p241
I1
sVHH12
p242
I-1
sVHH11
p243
I-1
sS'OC1'
p244
F-1
sS'OC2'
p245
F-1
sVHB1
p246
I1
sVHB2
p247
I1
ssVTRP
p248
(dp249
VHH2
p250
I1
sVCZ2
p251
I1
sVCZ3
p252
I1
sVCD1
p253
I1
sVCD2
p254
I1
sVHA
p255
I1
sVHE1
p256
I-1
sVHE3
p257
I1
sVCH2
p258
I1
sVHZ3
p259
I1
sVHZ2
p260
I1
sVC
I-1
sVCB
p261
I1
sVCA
p262
I1
sVCG
p263
I1
sVO
I-1
sVN
I-1
sVCE3
p264
I1
sVCE2
p265
I1
sVHD1
p266
I1
sVH
I-1
sVHB2
p267
I1
sVHB1
p268
I1
sVNE1
p269
I-1
ssVVAL
p270
(dp271
VC
I-1
sVHA
p272
I1
sVHG11
p273
I1
sVH
I-1
sVCA
p274
I1
sVHG21
p275
I1
sVO
I-1
sVN
I-1
sVCG1
p276
I1
sS'OC1'
p277
F-1
sVHG12
p278
I1
sVHG13
p279
I1
sVCG2
p280
I1
sVCB
p281
I1
sVHB
p282
I1
sVHG23
p283
I1
sS'OC2'
p284
F-1
sVHG22
p285
I1
ssVGLU
p286
(dp287
VC
I-1
sS'H2'
p288
F-1
sVCB
p289
I1
sVCA
p290
I1
sS'H1'
p291
F-1
sVCG
p292
I1
sVO
I-1
sVN
I-1
sVCD
p293
I-1
sVHG1
p294
I1
sVH
I-1
sS'H3'
p295
F-1
sVOE2
p296
I-1
sVHA
p297
I1
sVHB1
p298
I1
sVOE1
p299
I-1
sVHG2
p300
I1
sVHB2
p301
I1
ssVTYR
p302
(dp303
VHH
p304
I-1
sVCD1
p305
I1
sVCD2
p306
I1
sVHA
p307
I1
sVHE1
p308
I1
sVHE2
p309
I1
sVCB
p310
I1
sVC
I-1
sVH
I-1
sVCA
p311
I1
sVCG
p312
I1
sVO
I-1
sVN
I-1
sVCZ
p313
I1
sVCE2
p314
I1
sVCE1
p315
I1
sVHD2
p316
I1
sVHD1
p317
I1
sVOH
p318
I-1
sVH2
p319
F-1
sVH3
p320
F-1
sVH1
p321
F-1
sVOC1
p322
F-1
sVOC2
p323
F-1
sVHB1
p324
I1
sVHB2
p325
I1
ssVMET
p326
(dp327
VHA
p328
I1
sVHE1
p329
I1
sVHE2
p330
I1
sVHE3
p331
I1
sVHG2
p332
I1
sVHG1
p333
I1
sVCB
p334
I1
sVC
I-1
sVH
I-1
sVCA
p335
I1
sVCG
p336
I1
sVO
I-1
sVN
I-1
sVCE
p337
I1
sVHB2
p338
I1
sS'H2'
p339
F-1
sS'H3'
p340
F-1
sS'H1'
p341
F-1
sVOC1
p342
F-1
sVOC2
p343
F-1
sVHB1
p344
I1
sVSD
p345
I-1
ss.